; Function Attrs: mustprogress nofree norecurse nosync nounwind willreturn memory(argmem: read) uwtable
define internal noundef zeroext i1 @_ZZN28btSortedOverlappingPairCache37removeOverlappingPairsContainingProxyEP17btBroadphaseProxyP12btDispatcherEN18RemovePairCallback14processOverlapER16btBroadphasePair(ptr nocapture noundef nonnull readonly align 8 dereferenceable(16) %this, ptr nocapture noundef nonnull readonly align 8 dereferenceable(32) %pair) unnamed_addr #10 align 2 {
entry:
  %0 = load ptr, ptr %pair, align 8
  %m_obsoleteProxy = getelementptr inbounds i8, ptr %this, i64 8
  %1 = load ptr, ptr %m_obsoleteProxy, align 8
  %cmp = icmp eq ptr %0, %1
  %m_pProxy1 = getelementptr inbounds i8, ptr %pair, i64 8
  %2 = load ptr, ptr %m_pProxy1, align 8
  %cmp3 = icmp eq ptr %2, %1
  %3 = select i1 %cmp, i1 true, i1 %cmp3
  ret i1 %3
}